; Function Attrs: mustprogress nofree norecurse nosync nounwind willreturn memory(argmem: readwrite) uwtable
define void @_ZN32pxrInternal_v0_24__pxrReserved__7GfPlane3SetERKNS_7GfVec3dES3_(ptr nocapture noundef nonnull writeonly align 8 dereferenceable(32) %0, ptr nocapture noundef nonnull readonly align 8 dereferenceable(24) %1, ptr nocapture noundef nonnull readonly align 8 dereferenceable(24) %2) local_unnamed_addr #1 align 2 {
  %.sroa.0.0.copyload3 = load double, ptr %1, align 8
  %.sroa.4.0..sroa_idx4 = getelementptr inbounds i8, ptr %1, i64 8
  %.sroa.4.0.copyload5 = load double, ptr %.sroa.4.0..sroa_idx4, align 8
  %.sroa.6.0..sroa_idx6 = getelementptr inbounds i8, ptr %1, i64 16
  %.sroa.6.0.copyload7 = load double, ptr %.sroa.6.0..sroa_idx6, align 8
  %4 = fmul double %.sroa.4.0.copyload5, %.sroa.4.0.copyload5
  %5 = tail call double @llvm.fmuladd.f64(double %.sroa.0.0.copyload3, double %.sroa.0.0.copyload3, double %4)
  %6 = tail call noundef double @llvm.fmuladd.f64(double %.sroa.6.0.copyload7, double %.sroa.6.0.copyload7, double %5)
  %sqrt.i.i.i = tail call noundef double @llvm.sqrt.f64(double %6)
  %7 = fcmp ogt double %sqrt.i.i.i, 1.000000e-10
  %8 = select i1 %7, double %sqrt.i.i.i, double 1.000000e-10
  %9 = fdiv double 1.000000e+00, %8
  %10 = fmul double %.sroa.0.0.copyload3, %9
  %11 = fmul double %.sroa.4.0.copyload5, %9
  %12 = fmul double %.sroa.6.0.copyload7, %9
  store double %10, ptr %0, align 8
  %.sroa.4.0..sroa_idx = getelementptr inbounds i8, ptr %0, i64 8
  store double %11, ptr %.sroa.4.0..sroa_idx, align 8
  %.sroa.6.0..sroa_idx = getelementptr inbounds i8, ptr %0, i64 16
  store double %12, ptr %.sroa.6.0..sroa_idx, align 8
  %13 = load double, ptr %2, align 8
  %14 = getelementptr inbounds i8, ptr %2, i64 8
  %15 = load double, ptr %14, align 8
  %16 = fmul double %15, %11
  %17 = tail call double @llvm.fmuladd.f64(double %10, double %13, double %16)
  %18 = getelementptr inbounds i8, ptr %2, i64 16
  %19 = load double, ptr %18, align 8
  %20 = tail call noundef double @llvm.fmuladd.f64(double %12, double %19, double %17)
  %21 = getelementptr inbounds nuw i8, ptr %0, i64 24
  store double %20, ptr %21, align 8
  ret void
}